target datalayout = "e-m:e-p270:32:32-p271:32:32-p272:64:64-i64:64-i128:128-f80:128-n8:16:32:64-S128"
target triple = "x86_64-pc-linux-gnu"

%struct.Node = type { i32 }
%struct.Plan = type { i32, i32, double, double, double, i32, i8, i8, i8, i32, ptr, ptr, ptr, ptr, ptr, ptr, ptr }
%struct.Scan = type { %struct.Plan, i32 }
%struct.SubqueryScan = type { %struct.Scan, ptr, i32 }

; Function Attrs: inlinehint nounwind willreturn memory(read) uwtable
define available_externally double @atof(ptr noundef nonnull %0) #6 {
  %2 = alloca ptr, align 8
  store ptr %0, ptr %2, align 8
  %3 = load ptr, ptr %2, align 8
  %4 = call double @strtod(ptr noundef %3, ptr noundef null) #9
  ret double %4
}

; Function Attrs: inlinehint nounwind willreturn memory(read) uwtable
define available_externally i32 @atoi(ptr noundef nonnull %0) #6 {
  %2 = alloca ptr, align 8
  store ptr %0, ptr %2, align 8
  %3 = load ptr, ptr %2, align 8
  %4 = call i64 @strtol(ptr noundef %3, ptr noundef null, i32 noundef 10) #9
  %5 = trunc i64 %4 to i32
  ret i32 %5
}

; Function Attrs: inlinehint nounwind uwtable
define internal ptr @newNode(i64 noundef %0, i32 noundef %1) #7 {
  %3 = alloca i64, align 8
  %4 = alloca i32, align 4
  %5 = alloca ptr, align 8
  store i64 %0, ptr %3, align 8
  store i32 %1, ptr %4, align 4
  call void @llvm.lifetime.start.p0(i64 8, ptr %5) #9
  %6 = load i64, ptr %3, align 8
  %7 = call ptr @palloc0(i64 noundef %6)
  store ptr %7, ptr %5, align 8
  %8 = load i32, ptr %4, align 4
  %9 = load ptr, ptr %5, align 8
  %10 = getelementptr inbounds nuw %struct.Node, ptr %9, i32 0, i32 0
  store i32 %8, ptr %10, align 4
  %11 = load ptr, ptr %5, align 8
  call void @llvm.lifetime.end.p0(i64 8, ptr %5) #9
  ret ptr %11
}

; Function Attrs: nounwind uwtable
define internal ptr @_readSubqueryScan() #0 {
  %1 = alloca ptr, align 8
  %2 = alloca ptr, align 8
  %3 = alloca i32, align 4
  call void @llvm.lifetime.start.p0(i64 8, ptr %1) #9
  %4 = call ptr @newNode(i64 noundef 128, i32 noundef 346)
  store ptr %4, ptr %1, align 8
  call void @llvm.lifetime.start.p0(i64 8, ptr %2) #9
  call void @llvm.lifetime.start.p0(i64 4, ptr %3) #9
  %5 = call ptr @pg_strtok(ptr noundef %3)
  store ptr %5, ptr %2, align 8
  %6 = call ptr @pg_strtok(ptr noundef %3)
  store ptr %6, ptr %2, align 8
  %7 = load ptr, ptr %2, align 8
  %8 = call i32 @atoi(ptr noundef %7) #11
  %9 = load ptr, ptr %1, align 8
  %10 = getelementptr inbounds nuw %struct.SubqueryScan, ptr %9, i32 0, i32 0
  %11 = getelementptr inbounds nuw %struct.Scan, ptr %10, i32 0, i32 0
  %12 = getelementptr inbounds nuw %struct.Plan, ptr %11, i32 0, i32 1
  store i32 %8, ptr %12, align 4
  %13 = call ptr @pg_strtok(ptr noundef %3)
  store ptr %13, ptr %2, align 8
  %14 = call ptr @pg_strtok(ptr noundef %3)
  store ptr %14, ptr %2, align 8
  %15 = load ptr, ptr %2, align 8
  %16 = call double @atof(ptr noundef %15) #11
  %17 = load ptr, ptr %1, align 8
  %18 = getelementptr inbounds nuw %struct.SubqueryScan, ptr %17, i32 0, i32 0
  %19 = getelementptr inbounds nuw %struct.Scan, ptr %18, i32 0, i32 0
  %20 = getelementptr inbounds nuw %struct.Plan, ptr %19, i32 0, i32 2
  store double %16, ptr %20, align 8
  %21 = call ptr @pg_strtok(ptr noundef %3)
  store ptr %21, ptr %2, align 8
  %22 = call ptr @pg_strtok(ptr noundef %3)
  store ptr %22, ptr %2, align 8
  %23 = load ptr, ptr %2, align 8
  %24 = call double @atof(ptr noundef %23) #11
  %25 = load ptr, ptr %1, align 8
  %26 = getelementptr inbounds nuw %struct.SubqueryScan, ptr %25, i32 0, i32 0
  %27 = getelementptr inbounds nuw %struct.Scan, ptr %26, i32 0, i32 0
  %28 = getelementptr inbounds nuw %struct.Plan, ptr %27, i32 0, i32 3
  store double %24, ptr %28, align 8
  %29 = call ptr @pg_strtok(ptr noundef %3)
  store ptr %29, ptr %2, align 8
  %30 = call ptr @pg_strtok(ptr noundef %3)
  store ptr %30, ptr %2, align 8
  %31 = load ptr, ptr %2, align 8
  %32 = call double @atof(ptr noundef %31) #11
  %33 = load ptr, ptr %1, align 8
  %34 = getelementptr inbounds nuw %struct.SubqueryScan, ptr %33, i32 0, i32 0
  %35 = getelementptr inbounds nuw %struct.Scan, ptr %34, i32 0, i32 0
  %36 = getelementptr inbounds nuw %struct.Plan, ptr %35, i32 0, i32 4
  store double %32, ptr %36, align 8
  %37 = call ptr @pg_strtok(ptr noundef %3)
  store ptr %37, ptr %2, align 8
  %38 = call ptr @pg_strtok(ptr noundef %3)
  store ptr %38, ptr %2, align 8
  %39 = load ptr, ptr %2, align 8
  %40 = call i32 @atoi(ptr noundef %39) #11
  %41 = load ptr, ptr %1, align 8
  %42 = getelementptr inbounds nuw %struct.SubqueryScan, ptr %41, i32 0, i32 0
  %43 = getelementptr inbounds nuw %struct.Scan, ptr %42, i32 0, i32 0
  %44 = getelementptr inbounds nuw %struct.Plan, ptr %43, i32 0, i32 5
  store i32 %40, ptr %44, align 8
  %45 = call ptr @pg_strtok(ptr noundef %3)
  store ptr %45, ptr %2, align 8
  %46 = call ptr @pg_strtok(ptr noundef %3)
  store ptr %46, ptr %2, align 8
  %47 = load ptr, ptr %2, align 8
  %48 = load i8, ptr %47, align 1
  %49 = sext i8 %48 to i32
  %50 = icmp eq i32 %49, 116
  %51 = select i1 %50, i32 1, i32 0
  %52 = icmp ne i32 %51, 0
  %53 = load ptr, ptr %1, align 8
  %54 = getelementptr inbounds nuw %struct.SubqueryScan, ptr %53, i32 0, i32 0
  %55 = getelementptr inbounds nuw %struct.Scan, ptr %54, i32 0, i32 0
  %56 = getelementptr inbounds nuw %struct.Plan, ptr %55, i32 0, i32 6
  %57 = zext i1 %52 to i8
  store i8 %57, ptr %56, align 4
  %58 = call ptr @pg_strtok(ptr noundef %3)
  store ptr %58, ptr %2, align 8
  %59 = call ptr @pg_strtok(ptr noundef %3)
  store ptr %59, ptr %2, align 8
  %60 = load ptr, ptr %2, align 8
  %61 = load i8, ptr %60, align 1
  %62 = sext i8 %61 to i32
  %63 = icmp eq i32 %62, 116
  %64 = select i1 %63, i32 1, i32 0
  %65 = icmp ne i32 %64, 0
  %66 = load ptr, ptr %1, align 8
  %67 = getelementptr inbounds nuw %struct.SubqueryScan, ptr %66, i32 0, i32 0
  %68 = getelementptr inbounds nuw %struct.Scan, ptr %67, i32 0, i32 0
  %69 = getelementptr inbounds nuw %struct.Plan, ptr %68, i32 0, i32 7
  %70 = zext i1 %65 to i8
  store i8 %70, ptr %69, align 1
  %71 = call ptr @pg_strtok(ptr noundef %3)
  store ptr %71, ptr %2, align 8
  %72 = call ptr @pg_strtok(ptr noundef %3)
  store ptr %72, ptr %2, align 8
  %73 = load ptr, ptr %2, align 8
  %74 = load i8, ptr %73, align 1
  %75 = sext i8 %74 to i32
  %76 = icmp eq i32 %75, 116
  %77 = select i1 %76, i32 1, i32 0
  %78 = icmp ne i32 %77, 0
  %79 = load ptr, ptr %1, align 8
  %80 = getelementptr inbounds nuw %struct.SubqueryScan, ptr %79, i32 0, i32 0
  %81 = getelementptr inbounds nuw %struct.Scan, ptr %80, i32 0, i32 0
  %82 = getelementptr inbounds nuw %struct.Plan, ptr %81, i32 0, i32 8
  %83 = zext i1 %78 to i8
  store i8 %83, ptr %82, align 2
  %84 = call ptr @pg_strtok(ptr noundef %3)
  store ptr %84, ptr %2, align 8
  %85 = call ptr @pg_strtok(ptr noundef %3)
  store ptr %85, ptr %2, align 8
  %86 = load ptr, ptr %2, align 8
  %87 = call i32 @atoi(ptr noundef %86) #11
  %88 = load ptr, ptr %1, align 8
  %89 = getelementptr inbounds nuw %struct.SubqueryScan, ptr %88, i32 0, i32 0
  %90 = getelementptr inbounds nuw %struct.Scan, ptr %89, i32 0, i32 0
  %91 = getelementptr inbounds nuw %struct.Plan, ptr %90, i32 0, i32 9
  store i32 %87, ptr %91, align 8
  %92 = call ptr @pg_strtok(ptr noundef %3)
  store ptr %92, ptr %2, align 8
  %93 = call ptr @nodeRead(ptr noundef null, i32 noundef 0)
  %94 = load ptr, ptr %1, align 8
  %95 = getelementptr inbounds nuw %struct.SubqueryScan, ptr %94, i32 0, i32 0
  %96 = getelementptr inbounds nuw %struct.Scan, ptr %95, i32 0, i32 0
  %97 = getelementptr inbounds nuw %struct.Plan, ptr %96, i32 0, i32 10
  store ptr %93, ptr %97, align 8
  %98 = call ptr @pg_strtok(ptr noundef %3)
  store ptr %98, ptr %2, align 8
  %99 = call ptr @nodeRead(ptr noundef null, i32 noundef 0)
  %100 = load ptr, ptr %1, align 8
  %101 = getelementptr inbounds nuw %struct.SubqueryScan, ptr %100, i32 0, i32 0
  %102 = getelementptr inbounds nuw %struct.Scan, ptr %101, i32 0, i32 0
  %103 = getelementptr inbounds nuw %struct.Plan, ptr %102, i32 0, i32 11
  store ptr %99, ptr %103, align 8
  %104 = call ptr @pg_strtok(ptr noundef %3)
  store ptr %104, ptr %2, align 8
  %105 = call ptr @nodeRead(ptr noundef null, i32 noundef 0)
  %106 = load ptr, ptr %1, align 8
  %107 = getelementptr inbounds nuw %struct.SubqueryScan, ptr %106, i32 0, i32 0
  %108 = getelementptr inbounds nuw %struct.Scan, ptr %107, i32 0, i32 0
  %109 = getelementptr inbounds nuw %struct.Plan, ptr %108, i32 0, i32 12
  store ptr %105, ptr %109, align 8
  %110 = call ptr @pg_strtok(ptr noundef %3)
  store ptr %110, ptr %2, align 8
  %111 = call ptr @nodeRead(ptr noundef null, i32 noundef 0)
  %112 = load ptr, ptr %1, align 8
  %113 = getelementptr inbounds nuw %struct.SubqueryScan, ptr %112, i32 0, i32 0
  %114 = getelementptr inbounds nuw %struct.Scan, ptr %113, i32 0, i32 0
  %115 = getelementptr inbounds nuw %struct.Plan, ptr %114, i32 0, i32 13
  store ptr %111, ptr %115, align 8
  %116 = call ptr @pg_strtok(ptr noundef %3)
  store ptr %116, ptr %2, align 8
  %117 = call ptr @nodeRead(ptr noundef null, i32 noundef 0)
  %118 = load ptr, ptr %1, align 8
  %119 = getelementptr inbounds nuw %struct.SubqueryScan, ptr %118, i32 0, i32 0
  %120 = getelementptr inbounds nuw %struct.Scan, ptr %119, i32 0, i32 0
  %121 = getelementptr inbounds nuw %struct.Plan, ptr %120, i32 0, i32 14
  store ptr %117, ptr %121, align 8
  %122 = call ptr @pg_strtok(ptr noundef %3)
  store ptr %122, ptr %2, align 8
  %123 = call ptr @_readBitmapset()
  %124 = load ptr, ptr %1, align 8
  %125 = getelementptr inbounds nuw %struct.SubqueryScan, ptr %124, i32 0, i32 0
  %126 = getelementptr inbounds nuw %struct.Scan, ptr %125, i32 0, i32 0
  %127 = getelementptr inbounds nuw %struct.Plan, ptr %126, i32 0, i32 15
  store ptr %123, ptr %127, align 8
  %128 = call ptr @pg_strtok(ptr noundef %3)
  store ptr %128, ptr %2, align 8
  %129 = call ptr @_readBitmapset()
  %130 = load ptr, ptr %1, align 8
  %131 = getelementptr inbounds nuw %struct.SubqueryScan, ptr %130, i32 0, i32 0
  %132 = getelementptr inbounds nuw %struct.Scan, ptr %131, i32 0, i32 0
  %133 = getelementptr inbounds nuw %struct.Plan, ptr %132, i32 0, i32 16
  store ptr %129, ptr %133, align 8
  %134 = call ptr @pg_strtok(ptr noundef %3)
  store ptr %134, ptr %2, align 8
  %135 = call ptr @pg_strtok(ptr noundef %3)
  store ptr %135, ptr %2, align 8
  %136 = load ptr, ptr %2, align 8
  %137 = call i64 @strtoul(ptr noundef %136, ptr noundef null, i32 noundef 10) #9
  %138 = trunc i64 %137 to i32
  %139 = load ptr, ptr %1, align 8
  %140 = getelementptr inbounds nuw %struct.SubqueryScan, ptr %139, i32 0, i32 0
  %141 = getelementptr inbounds nuw %struct.Scan, ptr %140, i32 0, i32 1
  store i32 %138, ptr %141, align 8
  %142 = call ptr @pg_strtok(ptr noundef %3)
  store ptr %142, ptr %2, align 8
  %143 = call ptr @nodeRead(ptr noundef null, i32 noundef 0)
  %144 = load ptr, ptr %1, align 8
  %145 = getelementptr inbounds nuw %struct.SubqueryScan, ptr %144, i32 0, i32 1
  store ptr %143, ptr %145, align 8
  %146 = call ptr @pg_strtok(ptr noundef %3)
  store ptr %146, ptr %2, align 8
  %147 = call ptr @pg_strtok(ptr noundef %3)
  store ptr %147, ptr %2, align 8
  %148 = load ptr, ptr %2, align 8
  %149 = call i32 @atoi(ptr noundef %148) #11
  %150 = load ptr, ptr %1, align 8
  %151 = getelementptr inbounds nuw %struct.SubqueryScan, ptr %150, i32 0, i32 2
  store i32 %149, ptr %151, align 8
  %152 = load ptr, ptr %1, align 8
  call void @llvm.lifetime.end.p0(i64 4, ptr %3) #9
  call void @llvm.lifetime.end.p0(i64 8, ptr %2) #9
  call void @llvm.lifetime.end.p0(i64 8, ptr %1) #9
  ret ptr %152
}